; Function Attrs: mustprogress sspstrong uwtable
define void @_ZN3tbb6detail2r122threading_control_impl22make_thread_dispatcherERNS1_17threading_controlEjj(ptr dead_on_unwind noalias writable sret(%"class.std::unique_ptr.20") align 8 initializes((0, 8)) %0, ptr noundef nonnull align 8 dereferenceable(16) %1, i32 noundef %2, i32 noundef %3) local_unnamed_addr #0 align 2 personality ptr @__gxx_personality_v0 {
  %5 = tail call noundef i64 @_ZN3tbb6detail2r134global_control_active_value_unsafeENS0_2d114global_control9parameterE(i32 noundef 1)
  tail call void @llvm.experimental.noalias.scope.decl(metadata !22)
  %6 = tail call noundef ptr @_ZN3tbb6detail2r122cache_aligned_allocateEm(i64 noundef 152), !noalias !22
  tail call void @_ZN3tbb6detail2r117thread_dispatcherC1ERNS1_17threading_controlEjm(ptr noundef nonnull align 8 dereferenceable(152) %6, ptr noundef nonnull align 8 dereferenceable(16) %1, i32 noundef %3, i64 noundef %5), !noalias !22
  store ptr %6, ptr %0, align 8, !tbaa !25, !alias.scope !22
  %7 = load i8, ptr @_ZN3tbb6detail2r18governor13UsePrivateRMLE, align 1, !tbaa !27, !range !29, !noundef !30
  %8 = trunc nuw i8 %7 to i1
  br i1 %8, label %27, label %9

9:                                                ; preds = %4
  %10 = getelementptr inbounds nuw i8, ptr %6, i64 144
  %11 = load ptr, ptr %10, align 8, !tbaa !31
  %12 = load ptr, ptr %11, align 8, !tbaa !14
  %13 = getelementptr inbounds nuw i8, ptr %12, i64 48
  %14 = load ptr, ptr %13, align 8
  %15 = invoke noundef i32 %14(ptr noundef nonnull align 8 dereferenceable(8) %11)
          to label %16 unwind label %25

16:                                               ; preds = %9
  %17 = icmp ult i32 %15, %2
  br i1 %17, label %18, label %27

18:                                               ; preds = %16
  %19 = load ptr, ptr %10, align 8, !tbaa !31
  %20 = load ptr, ptr %19, align 8, !tbaa !14
  %21 = getelementptr inbounds nuw i8, ptr %20, i64 48
  %22 = load ptr, ptr %21, align 8
  %23 = invoke noundef i32 %22(ptr noundef nonnull align 8 dereferenceable(8) %19)
          to label %24 unwind label %25

24:                                               ; preds = %18
  invoke void (ptr, ...) @_ZN3tbb6detail2r115runtime_warningEPKcz(ptr noundef nonnull @.str, i32 noundef %23, i32 noundef %2)
          to label %27 unwind label %25

25:                                               ; preds = %24, %18, %9
  %26 = landingpad { ptr, i32 }
          cleanup
  tail call void @_ZNSt10unique_ptrIN3tbb6detail2r117thread_dispatcherENS2_21cache_aligned_deleterEED2Ev(ptr noundef nonnull align 8 dereferenceable(8) %0) #16
  resume { ptr, i32 } %26

27:                                               ; preds = %4, %16, %24
  ret void
}